; Function Attrs: mustprogress uwtable
define dso_local void @_ZN34btDeformableMultiBodyDynamicsWorld16setupConstraintsEv(ptr noundef nonnull align 8 dereferenceable(1056) %0) local_unnamed_addr #4 align 2 {
  %2 = getelementptr inbounds nuw i8, ptr %0, i64 848
  %3 = load ptr, ptr %2, align 8, !tbaa !81
  %4 = getelementptr inbounds nuw i8, ptr %0, i64 152
  %5 = load ptr, ptr %3, align 8, !tbaa !50
  %6 = getelementptr inbounds nuw i8, ptr %5, i64 152
  %7 = load ptr, ptr %6, align 8
  tail call void %7(ptr noundef nonnull align 8 dereferenceable(609) %3, ptr noundef nonnull align 4 dereferenceable(128) %4)
  tail call void @_ZN34btDeformableMultiBodyDynamicsWorld15sortConstraintsEv(ptr noundef nonnull align 8 dereferenceable(1056) %0)
  %8 = getelementptr inbounds nuw i8, ptr %0, i64 580
  %9 = load i32, ptr %8, align 4, !tbaa !206
  %.not = icmp eq i32 %9, 0
  %10 = getelementptr inbounds nuw i8, ptr %0, i64 592
  %11 = load ptr, ptr %10, align 8
  %12 = select i1 %.not, ptr null, ptr %11
  %13 = load ptr, ptr %0, align 8, !tbaa !50
  %14 = getelementptr inbounds nuw i8, ptr %13, i64 216
  %15 = load ptr, ptr %14, align 8
  %16 = tail call noundef i32 %15(ptr noundef nonnull align 8 dereferenceable(508) %0)
  %.not3 = icmp eq i32 %16, 0
  %17 = getelementptr inbounds nuw i8, ptr %0, i64 296
  %18 = load ptr, ptr %17, align 8
  %19 = select i1 %.not3, ptr null, ptr %18
  %20 = getelementptr inbounds nuw i8, ptr %0, i64 1040
  %21 = load ptr, ptr %20, align 8, !tbaa !215
  %22 = getelementptr inbounds nuw i8, ptr %0, i64 284
  %23 = load i32, ptr %22, align 4, !tbaa !202
  %24 = load i32, ptr %8, align 4, !tbaa !206
  %25 = load ptr, ptr %0, align 8, !tbaa !50
  %26 = getelementptr inbounds nuw i8, ptr %25, i64 40
  %27 = load ptr, ptr %26, align 8
  %28 = tail call noundef ptr %27(ptr noundef nonnull align 8 dereferenceable(121) %0)
  %29 = load ptr, ptr %21, align 8, !tbaa !50
  %30 = getelementptr inbounds nuw i8, ptr %29, i64 24
  %31 = load ptr, ptr %30, align 8
  tail call void %31(ptr noundef nonnull align 8 dereferenceable(264) %21, ptr noundef nonnull %4, ptr noundef %19, i32 noundef %23, ptr noundef %12, i32 noundef %24, ptr noundef %28)
  %32 = getelementptr inbounds nuw i8, ptr %0, i64 328
  %33 = load ptr, ptr %32, align 8, !tbaa !367
  %34 = getelementptr inbounds nuw i8, ptr %0, i64 40
  %35 = load ptr, ptr %34, align 8, !tbaa !368
  tail call void @_ZN25btSimulationIslandManager12buildIslandsEP12btDispatcherP16btCollisionWorld(ptr noundef nonnull align 8 dereferenceable(105) %33, ptr noundef %35, ptr noundef nonnull %0)
  ret void
}